target datalayout = "e-m:e-p270:32:32-p271:32:32-p272:64:64-i64:64-i128:128-f80:128-n8:16:32:64-S128"
target triple = "x86_64-pc-linux-gnu"

%"class.icu_77::TimeZoneTransition" = type { %"class.icu_77::UObject", double, ptr, ptr }
%"class.icu_77::UObject" = type { ptr }

; Function Attrs: mustprogress nounwind uwtable
define void @_ZN6icu_7718TimeZoneTransition9adoptFromEPNS_12TimeZoneRuleE(ptr noundef nonnull align 8 dereferenceable(32) %0, ptr noundef %1) #0 align 2 {
  %3 = alloca ptr, align 8
  %4 = alloca ptr, align 8
  store ptr %0, ptr %3, align 8, !tbaa !3
  store ptr %1, ptr %4, align 8, !tbaa !10
  %5 = load ptr, ptr %3, align 8
  %6 = getelementptr inbounds nuw %"class.icu_77::TimeZoneTransition", ptr %5, i32 0, i32 2
  %7 = load ptr, ptr %6, align 8, !tbaa !17
  %8 = icmp eq ptr %7, null
  br i1 %8, label %13, label %9

9:                                                ; preds = %2
  %10 = load ptr, ptr %7, align 8, !tbaa !12
  %11 = getelementptr inbounds ptr, ptr %10, i64 1
  %12 = load ptr, ptr %11, align 8
  call void %12(ptr noundef nonnull align 8 dereferenceable(80) %7) #6
  br label %13

13:                                               ; preds = %9, %2
  %14 = load ptr, ptr %4, align 8, !tbaa !10
  %15 = getelementptr inbounds nuw %"class.icu_77::TimeZoneTransition", ptr %5, i32 0, i32 2
  store ptr %14, ptr %15, align 8, !tbaa !17
  ret void
}